target datalayout = "e-m:e-p270:32:32-p271:32:32-p272:64:64-i64:64-i128:128-f80:128-n8:16:32:64-S128"
target triple = "x86_64-pc-linux-gnu"

@hf_mpeg_descr_country_availability_flag = internal global i32 0, align 4
@hf_mpeg_descr_country_availability_reserved_future_use = internal global i32 0, align 4
@hf_mpeg_descr_country_availability_country_code = internal global i32 0, align 4
@ett_mpeg_descriptor_country_availability_countries = internal global i32 0, align 4
@.str.751 = private unnamed_addr constant [10 x i8] c"Countries\00", align 1

; Function Attrs: null_pointer_is_valid sspstrong uwtable
define internal void @proto_mpeg_descriptor_dissect_country_availability_descriptor(ptr noundef %0, i32 noundef %1, i32 noundef %2, ptr noundef %3) #1 {
  %5 = alloca ptr, align 8
  %6 = alloca i32, align 4
  %7 = alloca i32, align 4
  %8 = alloca ptr, align 8
  %9 = alloca i32, align 4
  %10 = alloca ptr, align 8
  store ptr %0, ptr %5, align 8
  store i32 %1, ptr %6, align 4
  store i32 %2, ptr %7, align 4
  store ptr %3, ptr %8, align 8
  call void @llvm.lifetime.start.p0(i64 4, ptr %9) #4
  %11 = load i32, ptr %6, align 4
  %12 = load i32, ptr %7, align 4
  %13 = add i32 %11, %12
  store i32 %13, ptr %9, align 4
  call void @llvm.lifetime.start.p0(i64 8, ptr %10) #4
  %14 = load ptr, ptr %8, align 8
  %15 = load i32, ptr @hf_mpeg_descr_country_availability_flag, align 4
  %16 = load ptr, ptr %5, align 8
  %17 = load i32, ptr %6, align 4
  %18 = call ptr @proto_tree_add_item(ptr noundef %14, i32 noundef %15, ptr noundef %16, i32 noundef %17, i32 noundef 1, i32 noundef 0)
  %19 = load ptr, ptr %8, align 8
  %20 = load i32, ptr @hf_mpeg_descr_country_availability_reserved_future_use, align 4
  %21 = load ptr, ptr %5, align 8
  %22 = load i32, ptr %6, align 4
  %23 = call ptr @proto_tree_add_item(ptr noundef %19, i32 noundef %20, ptr noundef %21, i32 noundef %22, i32 noundef 1, i32 noundef 0)
  %24 = load i32, ptr %6, align 4
  %25 = add i32 %24, 1
  store i32 %25, ptr %6, align 4
  %26 = load ptr, ptr %8, align 8
  %27 = load ptr, ptr %5, align 8
  %28 = load i32, ptr %6, align 4
  %29 = load i32, ptr %9, align 4
  %30 = load i32, ptr %6, align 4
  %31 = sub i32 %29, %30
  %32 = load i32, ptr @ett_mpeg_descriptor_country_availability_countries, align 4
  %33 = call ptr (ptr, ptr, i32, i32, i32, ptr, ptr, ...) @proto_tree_add_subtree_format(ptr noundef %26, ptr noundef %27, i32 noundef %28, i32 noundef %31, i32 noundef %32, ptr noundef null, ptr noundef @.str.751)
  store ptr %33, ptr %10, align 8
  br label %34

34:                                               ; preds = %38, %4
  %35 = load i32, ptr %6, align 4
  %36 = load i32, ptr %9, align 4
  %37 = icmp ult i32 %35, %36
  br i1 %37, label %38, label %46

38:                                               ; preds = %34
  %39 = load ptr, ptr %10, align 8
  %40 = load i32, ptr @hf_mpeg_descr_country_availability_country_code, align 4
  %41 = load ptr, ptr %5, align 8
  %42 = load i32, ptr %6, align 4
  %43 = call ptr @proto_tree_add_item(ptr noundef %39, i32 noundef %40, ptr noundef %41, i32 noundef %42, i32 noundef 3, i32 noundef 0)
  %44 = load i32, ptr %6, align 4
  %45 = add i32 %44, 3
  store i32 %45, ptr %6, align 4
  br label %34, !llvm.loop !11

46:                                               ; preds = %34
  call void @llvm.lifetime.end.p0(i64 8, ptr %10) #4
  call void @llvm.lifetime.end.p0(i64 4, ptr %9) #4
  ret void
}