; Function Attrs: null_pointer_is_valid sspstrong uwtable
define internal fastcc void @proto_mpeg_descriptor_dissect_country_availability_descriptor(ptr noundef %0, i32 noundef %1, i32 noundef range(i32 1, 256) %2, ptr noundef %3) unnamed_addr #1 {
  %5 = add i32 %2, %1
  %6 = load i32, ptr @hf_mpeg_descr_country_availability_flag, align 4
  %7 = tail call ptr @proto_tree_add_item(ptr noundef %3, i32 noundef %6, ptr noundef %0, i32 noundef %1, i32 noundef 1, i32 noundef 0)
  %8 = load i32, ptr @hf_mpeg_descr_country_availability_reserved_future_use, align 4
  %9 = tail call ptr @proto_tree_add_item(ptr noundef %3, i32 noundef %8, ptr noundef %0, i32 noundef %1, i32 noundef 1, i32 noundef 0)
  %10 = add i32 %1, 1
  %11 = add nsw i32 %2, -1
  %12 = load i32, ptr @ett_mpeg_descriptor_country_availability_countries, align 4
  %13 = tail call ptr (ptr, ptr, i32, i32, i32, ptr, ptr, ...) @proto_tree_add_subtree_format(ptr noundef %3, ptr noundef %0, i32 noundef %10, i32 noundef %11, i32 noundef %12, ptr noundef null, ptr noundef nonnull @.str.751)
  %14 = icmp ult i32 %10, %5
  br i1 %14, label %.lr.ph, label %._crit_edge

.lr.ph:                                           ; preds = %4, %.lr.ph
  %.019 = phi i32 [ %17, %.lr.ph ], [ %10, %4 ]
  %15 = load i32, ptr @hf_mpeg_descr_country_availability_country_code, align 4
  %16 = tail call ptr @proto_tree_add_item(ptr noundef %13, i32 noundef %15, ptr noundef %0, i32 noundef %.019, i32 noundef 3, i32 noundef 0)
  %17 = add i32 %.019, 3
  %18 = icmp ult i32 %17, %5
  br i1 %18, label %.lr.ph, label %._crit_edge, !llvm.loop !11

._crit_edge:                                      ; preds = %.lr.ph, %4
  ret void
}